; Function Attrs: mustprogress nofree norecurse nosync nounwind sspstrong willreturn memory(read, inaccessiblemem: none) uwtable
define dso_local range(i32 0, 2) i32 @on_sig_stack(i64 noundef %sp) local_unnamed_addr #7 {
entry:
  %0 = tail call align 8 ptr @llvm.threadlocal.address.p0(ptr align 8 @thread_cpu)
  %1 = load ptr, ptr %0, align 8
  %opaque = getelementptr inbounds nuw i8, ptr %1, i64 624
  %2 = load ptr, ptr %opaque, align 16
  %sigaltstack_used = getelementptr inbounds nuw i8, ptr %2, i64 9168
  %3 = load i64, ptr %sigaltstack_used, align 8
  %sub = sub i64 %sp, %3
  %ss_size = getelementptr inbounds nuw i8, ptr %2, i64 9184
  %4 = load i64, ptr %ss_size, align 8
  %cmp = icmp ult i64 %sub, %4
  %conv = zext i1 %cmp to i32
  ret i32 %conv
}